target datalayout = "e-m:e-p270:32:32-p271:32:32-p272:64:64-i64:64-i128:128-f80:128-n8:16:32:64-S128"
target triple = "x86_64-pc-linux-gnu"

%"class.std::__cxx11::basic_string" = type { %"struct.std::__cxx11::basic_string<char>::_Alloc_hider", i64, %union.anon }
%"struct.std::__cxx11::basic_string<char>::_Alloc_hider" = type { ptr }
%union.anon = type { i64, [8 x i8] }
%"class.std::__shared_count" = type { ptr }
%"class.std::shared_ptr.3" = type { %"class.std::__shared_ptr.4" }
%"class.std::__shared_ptr.4" = type { ptr, %"class.std::__shared_count" }
%"class.rocksdb::PessimisticTransactionDB" = type { %"class.rocksdb::TransactionDB", ptr, %"class.std::shared_ptr.3", %"struct.rocksdb::TransactionDBOptions", %"class.std::shared_ptr.17", %"class.rocksdb::InstrumentedMutex", %"class.std::mutex", %"class.std::unordered_map", %"class.std::mutex", %"class.std::unordered_map.25" }
%"class.rocksdb::TransactionDB" = type { %"class.rocksdb::StackableDB" }
%"class.rocksdb::StackableDB" = type { %"class.rocksdb::DB", ptr, %"class.std::shared_ptr" }
%"class.rocksdb::DB" = type { ptr }
%"class.std::shared_ptr" = type { %"class.std::__shared_ptr" }
%"class.std::__shared_ptr" = type { ptr, %"class.std::__shared_count" }
%"struct.rocksdb::TransactionDBOptions" = type <{ i64, i32, [4 x i8], i64, i64, i64, %"class.std::shared_ptr.6", i32, i8, [3 x i8], %"class.std::shared_ptr.9", i8, [7 x i8], i64, %"class.std::function", i8, [7 x i8], %"class.std::vector.12", i32, [4 x i8], i64, i64, i8, [7 x i8] }>
%"class.std::shared_ptr.6" = type { %"class.std::__shared_ptr.7" }
%"class.std::__shared_ptr.7" = type { ptr, %"class.std::__shared_count" }
%"class.std::shared_ptr.9" = type { %"class.std::__shared_ptr.10" }
%"class.std::__shared_ptr.10" = type { ptr, %"class.std::__shared_count" }
%"class.std::function" = type { %"class.std::_Function_base", ptr }
%"class.std::_Function_base" = type { %"union.std::_Any_data", ptr }
%"union.std::_Any_data" = type { %"union.std::_Nocopy_types" }
%"union.std::_Nocopy_types" = type { { i64, i64 } }
%"class.std::vector.12" = type { %"struct.std::_Vector_base.13" }
%"struct.std::_Vector_base.13" = type { %"struct.std::_Vector_base<std::shared_ptr<rocksdb::SecondaryIndex>, std::allocator<std::shared_ptr<rocksdb::SecondaryIndex>>>::_Vector_impl" }
%"struct.std::_Vector_base<std::shared_ptr<rocksdb::SecondaryIndex>, std::allocator<std::shared_ptr<rocksdb::SecondaryIndex>>>::_Vector_impl" = type { %"struct.std::_Vector_base<std::shared_ptr<rocksdb::SecondaryIndex>, std::allocator<std::shared_ptr<rocksdb::SecondaryIndex>>>::_Vector_impl_data" }
%"struct.std::_Vector_base<std::shared_ptr<rocksdb::SecondaryIndex>, std::allocator<std::shared_ptr<rocksdb::SecondaryIndex>>>::_Vector_impl_data" = type { ptr, ptr, ptr }
%"class.std::shared_ptr.17" = type { %"class.std::__shared_ptr.18" }
%"class.std::__shared_ptr.18" = type { ptr, %"class.std::__shared_count" }
%"class.rocksdb::InstrumentedMutex" = type <{ %"class.rocksdb::port::Mutex", ptr, ptr, i32, [4 x i8] }>
%"class.rocksdb::port::Mutex" = type { %union.pthread_mutex_t }
%union.pthread_mutex_t = type { %struct.__pthread_mutex_s }
%struct.__pthread_mutex_s = type { i32, i32, i32, i32, i32, i16, i16, %struct.__pthread_internal_list }
%struct.__pthread_internal_list = type { ptr, ptr }
%"class.std::unordered_map" = type { %"class.std::_Hashtable" }
%"class.std::_Hashtable" = type { ptr, i64, %"struct.std::__detail::_Hash_node_base", i64, %"struct.std::__detail::_Prime_rehash_policy", ptr }
%"struct.std::__detail::_Hash_node_base" = type { ptr }
%"struct.std::__detail::_Prime_rehash_policy" = type { float, i64 }
%"class.std::mutex" = type { %"class.std::__mutex_base" }
%"class.std::__mutex_base" = type { %union.pthread_mutex_t }
%"class.std::unordered_map.25" = type { %"class.std::_Hashtable.26" }
%"class.std::_Hashtable.26" = type { ptr, i64, %"struct.std::__detail::_Hash_node_base", i64, %"struct.std::__detail::_Prime_rehash_policy", ptr }
%"struct.rocksdb::WriteOptions" = type <{ i8, i8, i8, i8, i8, i8, [2 x i8], i32, [4 x i8], i64, i8, [7 x i8] }>
%"struct.std::_Vector_base.130" = type { %"struct.std::_Vector_base<unsigned long, std::allocator<unsigned long>>::_Vector_impl" }
%"struct.std::_Vector_base<unsigned long, std::allocator<unsigned long>>::_Vector_impl" = type { %"struct.std::_Vector_base<unsigned long, std::allocator<unsigned long>>::_Vector_impl_data" }
%"struct.std::_Vector_base<unsigned long, std::allocator<unsigned long>>::_Vector_impl_data" = type { ptr, ptr, ptr }
%"class.rocksdb::autovector" = type { i64, [64 x i8], ptr, %"class.std::vector.129" }
%"class.std::vector.129" = type { %"struct.std::_Vector_base.130" }
%"class.rocksdb::WriteBatch" = type { %"class.rocksdb::WriteBatchBase", %"class.std::unique_ptr.170", %"struct.rocksdb::SavePoint", i8, i8, i8, %"struct.std::atomic.178", i64, %"class.std::unique_ptr.180", i64, i8, %"class.std::unordered_map.188", %"class.std::__cxx11::basic_string" }
%"class.rocksdb::WriteBatchBase" = type { ptr }
%"class.std::unique_ptr.170" = type { %"struct.std::__uniq_ptr_data.171" }
%"struct.std::__uniq_ptr_data.171" = type { %"class.std::__uniq_ptr_impl.172" }
%"class.std::__uniq_ptr_impl.172" = type { %"class.std::tuple.173" }
%"class.std::tuple.173" = type { %"struct.std::_Tuple_impl.174" }
%"struct.std::_Tuple_impl.174" = type { %"struct.std::_Head_base.177" }
%"struct.std::_Head_base.177" = type { ptr }
%"struct.rocksdb::SavePoint" = type { i64, i32, i32 }
%"struct.std::atomic.178" = type { %"struct.std::__atomic_base.179" }
%"struct.std::__atomic_base.179" = type { i32 }
%"class.std::unique_ptr.180" = type { %"struct.std::__uniq_ptr_data.181" }
%"struct.std::__uniq_ptr_data.181" = type { %"class.std::__uniq_ptr_impl.182" }
%"class.std::__uniq_ptr_impl.182" = type { %"class.std::tuple.183" }
%"class.std::tuple.183" = type { %"struct.std::_Tuple_impl.184" }
%"struct.std::_Tuple_impl.184" = type { %"struct.std::_Head_base.187" }
%"struct.std::_Head_base.187" = type { ptr }
%"class.std::unordered_map.188" = type { %"class.std::_Hashtable.189" }
%"class.std::_Hashtable.189" = type { ptr, i64, %"struct.std::__detail::_Hash_node_base", i64, %"struct.std::__detail::_Prime_rehash_policy", ptr }
%"class.rocksdb::Transaction" = type { ptr, i64, %"class.std::__cxx11::basic_string", %"struct.std::atomic.383", i64 }
%"struct.std::atomic.383" = type { i32 }
%"class.__gnu_cxx::__normal_iterator.604" = type { ptr }
%"class.rocksdb::SecondaryIndexMixin" = type { %"class.rocksdb::WriteCommittedTxn", ptr }
%"class.rocksdb::WriteCommittedTxn" = type { %"class.rocksdb::PessimisticTransaction.base", %"class.std::unordered_set.477" }
%"class.rocksdb::PessimisticTransaction.base" = type <{ %"class.rocksdb::TransactionBaseImpl", ptr, ptr, i64, i64, i64, i8, i8, [2 x i8], i32, i64, %"class.rocksdb::autovector", i32, [4 x i8], ptr, %"class.std::mutex", i64, i8, [7 x i8], i64, i8 }>
%"class.rocksdb::TransactionBaseImpl" = type { %"class.rocksdb::Transaction", ptr, ptr, %"struct.rocksdb::WriteOptions", ptr, ptr, i64, %"class.std::shared_ptr.447", i64, i64, i64, i64, %"class.rocksdb::WriteBatchWithIndex", %"class.std::unique_ptr.458", %"class.std::unique_ptr.466", %"class.rocksdb::WriteBatch", i8, i8, %"class.std::shared_ptr.474" }
%"class.std::shared_ptr.447" = type { %"class.std::__shared_ptr.448" }
%"class.std::__shared_ptr.448" = type { ptr, %"class.std::__shared_count" }
%"class.rocksdb::WriteBatchWithIndex" = type { %"class.rocksdb::WriteBatchBase", %"class.std::unique_ptr.450" }
%"class.std::unique_ptr.450" = type { %"struct.std::__uniq_ptr_data.451" }
%"struct.std::__uniq_ptr_data.451" = type { %"class.std::__uniq_ptr_impl.452" }
%"class.std::__uniq_ptr_impl.452" = type { %"class.std::tuple.453" }
%"class.std::tuple.453" = type { %"struct.std::_Tuple_impl.454" }
%"struct.std::_Tuple_impl.454" = type { %"struct.std::_Head_base.457" }
%"struct.std::_Head_base.457" = type { ptr }
%"class.std::unique_ptr.458" = type { %"struct.std::__uniq_ptr_data.459" }
%"struct.std::__uniq_ptr_data.459" = type { %"class.std::__uniq_ptr_impl.460" }
%"class.std::__uniq_ptr_impl.460" = type { %"class.std::tuple.461" }
%"class.std::tuple.461" = type { %"struct.std::_Tuple_impl.462" }
%"struct.std::_Tuple_impl.462" = type { %"struct.std::_Head_base.465" }
%"struct.std::_Head_base.465" = type { ptr }
%"class.std::unique_ptr.466" = type { %"struct.std::__uniq_ptr_data.467" }
%"struct.std::__uniq_ptr_data.467" = type { %"class.std::__uniq_ptr_impl.468" }
%"class.std::__uniq_ptr_impl.468" = type { %"class.std::tuple.469" }
%"class.std::tuple.469" = type { %"struct.std::_Tuple_impl.470" }
%"struct.std::_Tuple_impl.470" = type { %"struct.std::_Head_base.473" }
%"struct.std::_Head_base.473" = type { ptr }
%"class.std::shared_ptr.474" = type { %"class.std::__shared_ptr.475" }
%"class.std::__shared_ptr.475" = type { ptr, %"class.std::__shared_count" }
%"class.std::unordered_set.477" = type { %"class.std::_Hashtable.478" }
%"class.std::_Hashtable.478" = type { ptr, i64, %"struct.std::__detail::_Hash_node_base", i64, %"struct.std::__detail::_Prime_rehash_policy", ptr }

; Function Attrs: mustprogress nounwind uwtable
define linkonce_odr noundef nonnull align 8 dereferenceable(8) ptr @_ZNK9__gnu_cxx17__normal_iteratorIPKSt10shared_ptrIN7rocksdb14SecondaryIndexEESt6vectorIS4_SaIS4_EEE4baseEv(ptr noundef nonnull align 8 dereferenceable(8) %0) #3 comdat align 2 {
  %2 = alloca ptr, align 8
  store ptr %0, ptr %2, align 8, !tbaa !991
  %3 = load ptr, ptr %2, align 8
  %4 = getelementptr inbounds nuw %"class.__gnu_cxx::__normal_iterator.604", ptr %3, i32 0, i32 0
  ret ptr %4
}

; Function Attrs: mustprogress nounwind uwtable
define linkonce_odr void @_ZN9__gnu_cxx17__normal_iteratorIPKSt10shared_ptrIN7rocksdb14SecondaryIndexEESt6vectorIS4_SaIS4_EEEC2ERKS6_(ptr noundef nonnull align 8 dereferenceable(8) %0, ptr noundef nonnull align 8 dereferenceable(8) %1) unnamed_addr #3 comdat align 2 {
  %3 = alloca ptr, align 8
  %4 = alloca ptr, align 8
  store ptr %0, ptr %3, align 8, !tbaa !991
  store ptr %1, ptr %4, align 8, !tbaa !1001
  %5 = load ptr, ptr %3, align 8
  %6 = getelementptr inbounds nuw %"class.__gnu_cxx::__normal_iterator.604", ptr %5, i32 0, i32 0
  %7 = load ptr, ptr %4, align 8, !tbaa !1001
  %8 = load ptr, ptr %7, align 8, !tbaa !983
  store ptr %8, ptr %6, align 8, !tbaa !993
  ret void
}

; Function Attrs: inlinehint mustprogress nounwind uwtable
define linkonce_odr noundef zeroext i1 @_ZN9__gnu_cxxeqIPKSt10shared_ptrIN7rocksdb14SecondaryIndexEESt6vectorIS4_SaIS4_EEEEbRKNS_17__normal_iteratorIT_T0_EESF_(ptr noundef nonnull align 8 dereferenceable(8) %0, ptr noundef nonnull align 8 dereferenceable(8) %1) #1 comdat {
  %3 = alloca ptr, align 8
  %4 = alloca ptr, align 8
  store ptr %0, ptr %3, align 8, !tbaa !991
  store ptr %1, ptr %4, align 8, !tbaa !991
  %5 = load ptr, ptr %3, align 8, !tbaa !991
  %6 = call noundef nonnull align 8 dereferenceable(8) ptr @_ZNK9__gnu_cxx17__normal_iteratorIPKSt10shared_ptrIN7rocksdb14SecondaryIndexEESt6vectorIS4_SaIS4_EEE4baseEv(ptr noundef nonnull align 8 dereferenceable(8) %5) #4
  %7 = load ptr, ptr %6, align 8, !tbaa !983
  %8 = load ptr, ptr %4, align 8, !tbaa !991
  %9 = call noundef nonnull align 8 dereferenceable(8) ptr @_ZNK9__gnu_cxx17__normal_iteratorIPKSt10shared_ptrIN7rocksdb14SecondaryIndexEESt6vectorIS4_SaIS4_EEE4baseEv(ptr noundef nonnull align 8 dereferenceable(8) %8) #4
  %10 = load ptr, ptr %9, align 8, !tbaa !983
  %11 = icmp eq ptr %7, %10
  ret i1 %11
}

; Function Attrs: mustprogress nounwind uwtable
define linkonce_odr ptr @_ZNKSt6vectorISt10shared_ptrIN7rocksdb14SecondaryIndexEESaIS3_EE3endEv(ptr noundef nonnull align 8 dereferenceable(24) %0) #3 comdat align 2 {
  %2 = alloca %"class.__gnu_cxx::__normal_iterator.604", align 8
  %3 = alloca ptr, align 8
  store ptr %0, ptr %3, align 8, !tbaa !336
  %4 = load ptr, ptr %3, align 8
  %5 = getelementptr inbounds nuw %"struct.std::_Vector_base.13", ptr %4, i32 0, i32 0
  %6 = getelementptr inbounds nuw %"struct.std::_Vector_base<std::shared_ptr<rocksdb::SecondaryIndex>, std::allocator<std::shared_ptr<rocksdb::SecondaryIndex>>>::_Vector_impl_data", ptr %5, i32 0, i32 1
  call void @_ZN9__gnu_cxx17__normal_iteratorIPKSt10shared_ptrIN7rocksdb14SecondaryIndexEESt6vectorIS4_SaIS4_EEEC2ERKS6_(ptr noundef nonnull align 8 dereferenceable(8) %2, ptr noundef nonnull align 8 dereferenceable(8) %6) #4
  %7 = getelementptr inbounds nuw %"class.__gnu_cxx::__normal_iterator.604", ptr %2, i32 0, i32 0
  %8 = load ptr, ptr %7, align 8
  ret ptr %8
}

; Function Attrs: mustprogress nounwind uwtable
define linkonce_odr ptr @_ZNKSt6vectorISt10shared_ptrIN7rocksdb14SecondaryIndexEESaIS3_EE5beginEv(ptr noundef nonnull align 8 dereferenceable(24) %0) #3 comdat align 2 {
  %2 = alloca %"class.__gnu_cxx::__normal_iterator.604", align 8
  %3 = alloca ptr, align 8
  store ptr %0, ptr %3, align 8, !tbaa !336
  %4 = load ptr, ptr %3, align 8
  %5 = getelementptr inbounds nuw %"struct.std::_Vector_base.13", ptr %4, i32 0, i32 0
  %6 = getelementptr inbounds nuw %"struct.std::_Vector_base<std::shared_ptr<rocksdb::SecondaryIndex>, std::allocator<std::shared_ptr<rocksdb::SecondaryIndex>>>::_Vector_impl_data", ptr %5, i32 0, i32 0
  call void @_ZN9__gnu_cxx17__normal_iteratorIPKSt10shared_ptrIN7rocksdb14SecondaryIndexEESt6vectorIS4_SaIS4_EEEC2ERKS6_(ptr noundef nonnull align 8 dereferenceable(8) %2, ptr noundef nonnull align 8 dereferenceable(8) %6) #4
  %7 = getelementptr inbounds nuw %"class.__gnu_cxx::__normal_iterator.604", ptr %2, i32 0, i32 0
  %8 = load ptr, ptr %7, align 8
  ret ptr %8
}

; Function Attrs: inlinehint mustprogress nounwind uwtable
define linkonce_odr noundef ptr @_ZN7rocksdb22static_cast_with_checkINS_22PessimisticTransactionENS_11TransactionEEEPT_PT0_(ptr noundef %0) #1 comdat {
  %2 = alloca ptr, align 8
  %3 = alloca ptr, align 8
  store ptr %0, ptr %2, align 8, !tbaa !240
  call void @llvm.lifetime.start.p0(i64 8, ptr %3) #4
  %4 = load ptr, ptr %2, align 8, !tbaa !240
  store ptr %4, ptr %3, align 8, !tbaa !334
  %5 = load ptr, ptr %3, align 8, !tbaa !334
  call void @llvm.lifetime.end.p0(i64 8, ptr %3) #4
  ret ptr %5
}

; Function Attrs: mustprogress uwtable
define linkonce_odr void @_ZN7rocksdb19SecondaryIndexMixinINS_17WriteCommittedTxnEEC2IJPNS_19WriteCommittedTxnDBERKNS_12WriteOptionsERKNS_18TransactionOptionsEEEEPKSt6vectorISt10shared_ptrINS_14SecondaryIndexEESaISF_EEDpOT_(ptr noundef nonnull align 8 dereferenceable(712) %0, ptr noundef %1, ptr noundef nonnull align 8 dereferenceable(8) %2, ptr noundef nonnull align 8 dereferenceable(25) %3, ptr noundef nonnull align 8 dereferenceable(58) %4) unnamed_addr #5 comdat align 2 {
  %6 = alloca ptr, align 8
  %7 = alloca ptr, align 8
  %8 = alloca ptr, align 8
  %9 = alloca ptr, align 8
  %10 = alloca ptr, align 8
  store ptr %0, ptr %6, align 8, !tbaa !338
  store ptr %1, ptr %7, align 8, !tbaa !336
  store ptr %2, ptr %8, align 8, !tbaa !340
  store ptr %3, ptr %9, align 8, !tbaa !306
  store ptr %4, ptr %10, align 8, !tbaa !316
  %11 = load ptr, ptr %6, align 8
  %12 = load ptr, ptr %8, align 8, !tbaa !340
  %13 = load ptr, ptr %12, align 8, !tbaa !332
  %14 = load ptr, ptr %9, align 8, !tbaa !306
  %15 = load ptr, ptr %10, align 8, !tbaa !316
  call void @_ZN7rocksdb17WriteCommittedTxnC2EPNS_13TransactionDBERKNS_12WriteOptionsERKNS_18TransactionOptionsE(ptr noundef nonnull align 8 dereferenceable(704) %11, ptr noundef %13, ptr noundef nonnull align 8 dereferenceable(25) %14, ptr noundef nonnull align 8 dereferenceable(58) %15)
  store ptr getelementptr inbounds inrange(-16, 832) ({ [106 x ptr] }, ptr @_ZTVN7rocksdb19SecondaryIndexMixinINS_17WriteCommittedTxnEEE, i32 0, i32 0, i32 2), ptr %11, align 8, !tbaa !58
  %16 = getelementptr inbounds nuw %"class.rocksdb::SecondaryIndexMixin", ptr %11, i32 0, i32 1
  %17 = load ptr, ptr %7, align 8, !tbaa !336
  store ptr %17, ptr %16, align 8, !tbaa !342
  ret void
}

; Function Attrs: mustprogress nounwind uwtable
define linkonce_odr noundef zeroext i1 @_ZNKSt6vectorISt10shared_ptrIN7rocksdb14SecondaryIndexEESaIS3_EE5emptyEv(ptr noundef nonnull align 8 dereferenceable(24) %0) #3 comdat align 2 {
  %2 = alloca ptr, align 8
  %3 = alloca %"class.__gnu_cxx::__normal_iterator.604", align 8
  %4 = alloca %"class.__gnu_cxx::__normal_iterator.604", align 8
  store ptr %0, ptr %2, align 8, !tbaa !336
  %5 = load ptr, ptr %2, align 8
  call void @llvm.lifetime.start.p0(i64 8, ptr %3) #4
  %6 = call ptr @_ZNKSt6vectorISt10shared_ptrIN7rocksdb14SecondaryIndexEESaIS3_EE5beginEv(ptr noundef nonnull align 8 dereferenceable(24) %5) #4
  %7 = getelementptr inbounds nuw %"class.__gnu_cxx::__normal_iterator.604", ptr %3, i32 0, i32 0
  store ptr %6, ptr %7, align 8
  call void @llvm.lifetime.start.p0(i64 8, ptr %4) #4
  %8 = call ptr @_ZNKSt6vectorISt10shared_ptrIN7rocksdb14SecondaryIndexEESaIS3_EE3endEv(ptr noundef nonnull align 8 dereferenceable(24) %5) #4
  %9 = getelementptr inbounds nuw %"class.__gnu_cxx::__normal_iterator.604", ptr %4, i32 0, i32 0
  store ptr %8, ptr %9, align 8
  %10 = call noundef zeroext i1 @_ZN9__gnu_cxxeqIPKSt10shared_ptrIN7rocksdb14SecondaryIndexEESt6vectorIS4_SaIS4_EEEEbRKNS_17__normal_iteratorIT_T0_EESF_(ptr noundef nonnull align 8 dereferenceable(8) %3, ptr noundef nonnull align 8 dereferenceable(8) %4) #4
  call void @llvm.lifetime.end.p0(i64 8, ptr %4) #4
  call void @llvm.lifetime.end.p0(i64 8, ptr %3) #4
  ret i1 %10
}

; Function Attrs: mustprogress uwtable
define void @_ZN7rocksdb24PessimisticTransactionDB23ReinitializeTransactionEPNS_11TransactionERKNS_12WriteOptionsERKNS_18TransactionOptionsE(ptr noundef nonnull align 8 dereferenceable(520) %0, ptr noundef %1, ptr noundef nonnull align 8 dereferenceable(25) %2, ptr noundef nonnull align 8 dereferenceable(58) %3) #5 align 2 {
  %5 = alloca ptr, align 8
  %6 = alloca ptr, align 8
  %7 = alloca ptr, align 8
  %8 = alloca ptr, align 8
  %9 = alloca ptr, align 8
  store ptr %0, ptr %5, align 8, !tbaa !52
  store ptr %1, ptr %6, align 8, !tbaa !240
  store ptr %2, ptr %7, align 8, !tbaa !306
  store ptr %3, ptr %8, align 8, !tbaa !316
  %10 = load ptr, ptr %5, align 8
  call void @llvm.lifetime.start.p0(i64 8, ptr %9) #4
  %11 = load ptr, ptr %6, align 8, !tbaa !240
  %12 = call noundef ptr @_ZN7rocksdb22static_cast_with_checkINS_22PessimisticTransactionENS_11TransactionEEEPT_PT0_(ptr noundef %11)
  store ptr %12, ptr %9, align 8, !tbaa !334
  %13 = load ptr, ptr %9, align 8, !tbaa !334
  %14 = load ptr, ptr %7, align 8, !tbaa !306
  %15 = load ptr, ptr %8, align 8, !tbaa !316
  call void @_ZN7rocksdb22PessimisticTransaction12ReinitializeEPNS_13TransactionDBERKNS_12WriteOptionsERKNS_18TransactionOptionsE(ptr noundef nonnull align 8 dereferenceable(641) %13, ptr noundef %10, ptr noundef nonnull align 8 dereferenceable(25) %14, ptr noundef nonnull align 8 dereferenceable(58) %15)
  call void @llvm.lifetime.end.p0(i64 8, ptr %9) #4
  ret void
}

; Function Attrs: mustprogress uwtable
define noundef ptr @_ZN7rocksdb19WriteCommittedTxnDB16BeginTransactionERKNS_12WriteOptionsERKNS_18TransactionOptionsEPNS_11TransactionE(ptr noundef nonnull align 8 dereferenceable(520) %0, ptr noundef nonnull align 8 dereferenceable(25) %1, ptr noundef nonnull align 8 dereferenceable(58) %2, ptr noundef %3) unnamed_addr #5 align 2 personality ptr @__gxx_personality_v0 {
  %5 = alloca ptr, align 8
  %6 = alloca ptr, align 8
  %7 = alloca ptr, align 8
  %8 = alloca ptr, align 8
  %9 = alloca ptr, align 8
  %10 = alloca ptr, align 8
  %11 = alloca ptr, align 8
  %12 = alloca i32, align 4
  %13 = alloca i1, align 1
  store ptr %0, ptr %6, align 8, !tbaa !332
  store ptr %1, ptr %7, align 8, !tbaa !306
  store ptr %2, ptr %8, align 8, !tbaa !316
  store ptr %3, ptr %9, align 8, !tbaa !240
  %14 = load ptr, ptr %6, align 8
  %15 = load ptr, ptr %9, align 8, !tbaa !240
  %16 = icmp ne ptr %15, null
  br i1 %16, label %17, label %22

17:                                               ; preds = %4
  %18 = load ptr, ptr %9, align 8, !tbaa !240
  %19 = load ptr, ptr %7, align 8, !tbaa !306
  %20 = load ptr, ptr %8, align 8, !tbaa !316
  call void @_ZN7rocksdb24PessimisticTransactionDB23ReinitializeTransactionEPNS_11TransactionERKNS_12WriteOptionsERKNS_18TransactionOptionsE(ptr noundef nonnull align 8 dereferenceable(520) %14, ptr noundef %18, ptr noundef nonnull align 8 dereferenceable(25) %19, ptr noundef nonnull align 8 dereferenceable(58) %20)
  %21 = load ptr, ptr %9, align 8, !tbaa !240
  store ptr %21, ptr %5, align 8
  br label %49

22:                                               ; preds = %4
  %23 = getelementptr inbounds nuw %"class.rocksdb::PessimisticTransactionDB", ptr %14, i32 0, i32 3
  %24 = getelementptr inbounds nuw %"struct.rocksdb::TransactionDBOptions", ptr %23, i32 0, i32 17
  %25 = call noundef zeroext i1 @_ZNKSt6vectorISt10shared_ptrIN7rocksdb14SecondaryIndexEESaIS3_EE5emptyEv(ptr noundef nonnull align 8 dereferenceable(24) %24) #4
  br i1 %25, label %40, label %26

26:                                               ; preds = %22
  %27 = call noalias noundef nonnull ptr @_Znwm(i64 noundef 712) #27
  store i1 true, ptr %13, align 1
  %28 = getelementptr inbounds nuw %"class.rocksdb::PessimisticTransactionDB", ptr %14, i32 0, i32 3
  %29 = getelementptr inbounds nuw %"struct.rocksdb::TransactionDBOptions", ptr %28, i32 0, i32 17
  call void @llvm.lifetime.start.p0(i64 8, ptr %10) #4
  store ptr %14, ptr %10, align 8, !tbaa !332
  %30 = load ptr, ptr %7, align 8, !tbaa !306
  %31 = load ptr, ptr %8, align 8, !tbaa !316
  invoke void @_ZN7rocksdb19SecondaryIndexMixinINS_17WriteCommittedTxnEEC2IJPNS_19WriteCommittedTxnDBERKNS_12WriteOptionsERKNS_18TransactionOptionsEEEEPKSt6vectorISt10shared_ptrINS_14SecondaryIndexEESaISF_EEDpOT_(ptr noundef nonnull align 8 dereferenceable(712) %27, ptr noundef %29, ptr noundef nonnull align 8 dereferenceable(8) %10, ptr noundef nonnull align 8 dereferenceable(25) %30, ptr noundef nonnull align 8 dereferenceable(58) %31)
          to label %32 unwind label %33

32:                                               ; preds = %26
  store i1 false, ptr %13, align 1
  store ptr %27, ptr %5, align 8
  call void @llvm.lifetime.end.p0(i64 8, ptr %10) #4
  br label %49

33:                                               ; preds = %26
  %34 = landingpad { ptr, i32 }
          cleanup
  %35 = extractvalue { ptr, i32 } %34, 0
  store ptr %35, ptr %11, align 8
  %36 = extractvalue { ptr, i32 } %34, 1
  store i32 %36, ptr %12, align 4
  call void @llvm.lifetime.end.p0(i64 8, ptr %10) #4
  %37 = load i1, ptr %13, align 1
  br i1 %37, label %38, label %39

38:                                               ; preds = %33
  call void @_ZdlPvm(ptr noundef %27, i64 noundef 712) #26
  br label %39

39:                                               ; preds = %38, %33
  br label %51

40:                                               ; preds = %22
  %41 = call noalias noundef nonnull ptr @_Znwm(i64 noundef 704) #27
  %42 = load ptr, ptr %7, align 8, !tbaa !306
  %43 = load ptr, ptr %8, align 8, !tbaa !316
  invoke void @_ZN7rocksdb17WriteCommittedTxnC1EPNS_13TransactionDBERKNS_12WriteOptionsERKNS_18TransactionOptionsE(ptr noundef nonnull align 8 dereferenceable(704) %41, ptr noundef %14, ptr noundef nonnull align 8 dereferenceable(25) %42, ptr noundef nonnull align 8 dereferenceable(58) %43)
          to label %44 unwind label %45

44:                                               ; preds = %40
  store ptr %41, ptr %5, align 8
  br label %49

45:                                               ; preds = %40
  %46 = landingpad { ptr, i32 }
          cleanup
  %47 = extractvalue { ptr, i32 } %46, 0
  store ptr %47, ptr %11, align 8
  %48 = extractvalue { ptr, i32 } %46, 1
  store i32 %48, ptr %12, align 4
  call void @_ZdlPvm(ptr noundef %41, i64 noundef 704) #26
  br label %51

49:                                               ; preds = %44, %32, %17
  %50 = load ptr, ptr %5, align 8
  ret ptr %50

51:                                               ; preds = %45, %39
  %52 = load ptr, ptr %11, align 8
  %53 = load i32, ptr %12, align 4
  %54 = insertvalue { ptr, i32 } poison, ptr %52, 0
  %55 = insertvalue { ptr, i32 } %54, i32 %53, 1
  resume { ptr, i32 } %55
}