; Function Attrs: mustprogress uwtable
define noundef nonnull ptr @_ZN7rocksdb19WriteCommittedTxnDB16BeginTransactionERKNS_12WriteOptionsERKNS_18TransactionOptionsEPNS_11TransactionE(ptr noundef nonnull align 8 dereferenceable(520) %0, ptr noundef nonnull align 8 dereferenceable(25) %1, ptr noundef nonnull align 8 dereferenceable(58) %2, ptr noundef %3) unnamed_addr #4 align 2 personality ptr @__gxx_personality_v0 {
  %.not = icmp eq ptr %3, null
  br i1 %.not, label %6, label %5

5:                                                ; preds = %4
  tail call void @_ZN7rocksdb22PessimisticTransaction12ReinitializeEPNS_13TransactionDBERKNS_12WriteOptionsERKNS_18TransactionOptionsE(ptr noundef nonnull align 8 dereferenceable(641) %3, ptr noundef nonnull align 8 dereferenceable(520) %0, ptr noundef nonnull align 8 dereferenceable(25) %1, ptr noundef nonnull align 8 dereferenceable(58) %2)
  br label %22

6:                                                ; preds = %4
  %7 = getelementptr inbounds nuw i8, ptr %0, i64 192
  %8 = load ptr, ptr %7, align 8, !tbaa !94
  %9 = getelementptr inbounds nuw i8, ptr %0, i64 200
  %10 = load ptr, ptr %9, align 8, !tbaa !94
  %11 = icmp eq ptr %8, %10
  br i1 %11, label %18, label %12

12:                                               ; preds = %6
  %13 = tail call noalias noundef nonnull dereferenceable(712) ptr @_Znwm(i64 noundef 712) #31
  invoke void @_ZN7rocksdb17WriteCommittedTxnC2EPNS_13TransactionDBERKNS_12WriteOptionsERKNS_18TransactionOptionsE(ptr noundef nonnull align 8 dereferenceable(712) %13, ptr noundef nonnull %0, ptr noundef nonnull align 8 dereferenceable(25) %1, ptr noundef nonnull align 8 dereferenceable(58) %2)
          to label %14 unwind label %16

14:                                               ; preds = %12
  store ptr getelementptr inbounds nuw inrange(-16, 832) (i8, ptr @_ZTVN7rocksdb19SecondaryIndexMixinINS_17WriteCommittedTxnEEE, i64 16), ptr %13, align 8, !tbaa !26
  %15 = getelementptr inbounds nuw i8, ptr %13, i64 704
  store ptr %7, ptr %15, align 8, !tbaa !298
  br label %22

16:                                               ; preds = %12
  %17 = landingpad { ptr, i32 }
          cleanup
  tail call void @_ZdlPvm(ptr noundef nonnull %13, i64 noundef 712) #27
  br label %23

18:                                               ; preds = %6
  %19 = tail call noalias noundef nonnull dereferenceable(704) ptr @_Znwm(i64 noundef 704) #31
  invoke void @_ZN7rocksdb17WriteCommittedTxnC1EPNS_13TransactionDBERKNS_12WriteOptionsERKNS_18TransactionOptionsE(ptr noundef nonnull align 8 dereferenceable(704) %19, ptr noundef nonnull %0, ptr noundef nonnull align 8 dereferenceable(25) %1, ptr noundef nonnull align 8 dereferenceable(58) %2)
          to label %22 unwind label %20

20:                                               ; preds = %18
  %21 = landingpad { ptr, i32 }
          cleanup
  tail call void @_ZdlPvm(ptr noundef nonnull %19, i64 noundef 704) #27
  br label %23

22:                                               ; preds = %18, %14, %5
  %.014 = phi ptr [ %3, %5 ], [ %13, %14 ], [ %19, %18 ]
  ret ptr %.014

23:                                               ; preds = %16, %20
  %.pn = phi { ptr, i32 } [ %21, %20 ], [ %17, %16 ]
  resume { ptr, i32 } %.pn
}